target datalayout = "e-m:e-p270:32:32-p271:32:32-p272:64:64-i64:64-i128:128-f80:128-n8:16:32:64-S128"
target triple = "x86_64-pc-linux-gnu"

%class.hwf = type { double }

@.str.7 = private unnamed_addr constant [100 x i8] c"generated/home/dtcxzyw/WorkSpace/Projects/compilers/llvm-opt-benchmark/bench/z3/z3/src/util/hwf.cpp\00", align 1
@.str.8 = private unnamed_addr constant [29 x i8] c"UNEXPECTED CODE WAS REACHED.\00", align 1

; Function Attrs: inlinehint mustprogress uwtable
define linkonce_odr hidden void @_ZN11hwf_manager17set_rounding_modeE17mpf_rounding_mode(ptr noundef nonnull align 8 dereferenceable(736) %0, i32 noundef %1) #8 comdat align 2 {
  %3 = alloca ptr, align 8
  %4 = alloca i32, align 4
  store ptr %0, ptr %3, align 8, !tbaa !3
  store i32 %1, ptr %4, align 4, !tbaa !22
  %5 = load i32, ptr %4, align 4, !tbaa !22
  switch i32 %5, label %15 [
    i32 0, label %6
    i32 2, label %8
    i32 3, label %10
    i32 4, label %12
    i32 1, label %14
  ]

6:                                                ; preds = %2
  %7 = call i32 @fesetround(i32 noundef 0) #3
  br label %16

8:                                                ; preds = %2
  %9 = call i32 @fesetround(i32 noundef 2048) #3
  br label %16

10:                                               ; preds = %2
  %11 = call i32 @fesetround(i32 noundef 1024) #3
  br label %16

12:                                               ; preds = %2
  %13 = call i32 @fesetround(i32 noundef 3072) #3
  br label %16

14:                                               ; preds = %2
  br label %15

15:                                               ; preds = %2, %14
  call void @_Z26notify_assertion_violationPKciS0_(ptr noundef @.str.7, i32 noundef 607, ptr noundef @.str.8)
  call void @_Z18invoke_exit_actionj(i32 noundef 114)
  br label %16

16:                                               ; preds = %15, %12, %10, %8, %6
  ret void
}

; Function Attrs: mustprogress uwtable
define hidden void @_ZN11hwf_manager3mulE17mpf_rounding_modeRK3hwfS3_RS1_(ptr noundef nonnull align 8 dereferenceable(736) %0, i32 noundef %1, ptr noundef nonnull align 8 dereferenceable(8) %2, ptr noundef nonnull align 8 dereferenceable(8) %3, ptr noundef nonnull align 8 dereferenceable(8) %4) #4 align 2 {
  %6 = alloca ptr, align 8
  %7 = alloca i32, align 4
  %8 = alloca ptr, align 8
  %9 = alloca ptr, align 8
  %10 = alloca ptr, align 8
  store ptr %0, ptr %6, align 8, !tbaa !3
  store i32 %1, ptr %7, align 4, !tbaa !22
  store ptr %2, ptr %8, align 8, !tbaa !16
  store ptr %3, ptr %9, align 8, !tbaa !16
  store ptr %4, ptr %10, align 8, !tbaa !16
  %11 = load ptr, ptr %6, align 8
  %12 = load i32, ptr %7, align 4, !tbaa !22
  call void @_ZN11hwf_manager17set_rounding_modeE17mpf_rounding_mode(ptr noundef nonnull align 8 dereferenceable(736) %11, i32 noundef %12)
  %13 = load ptr, ptr %8, align 8, !tbaa !16
  %14 = getelementptr inbounds nuw %class.hwf, ptr %13, i32 0, i32 0
  %15 = load double, ptr %14, align 8, !tbaa !20
  %16 = load ptr, ptr %9, align 8, !tbaa !16
  %17 = getelementptr inbounds nuw %class.hwf, ptr %16, i32 0, i32 0
  %18 = load double, ptr %17, align 8, !tbaa !20
  %19 = fmul double %15, %18
  %20 = load ptr, ptr %10, align 8, !tbaa !16
  %21 = getelementptr inbounds nuw %class.hwf, ptr %20, i32 0, i32 0
  store double %19, ptr %21, align 8, !tbaa !20
  ret void
}